target datalayout = "e-m:e-p270:32:32-p271:32:32-p272:64:64-i64:64-i128:128-f80:128-n8:16:32:64-S128"
target triple = "x86_64-pc-linux-gnu"

@hf_ospf_header_reserved = internal global i32 0, align 4
@hf_ospf_v3_e_lsa_tlv_type = internal global i32 0, align 4
@hf_ospf_v3_e_lsa_tlv_length = internal global i32 0, align 4
@hf_ospf_v3_as_external_flag = internal global i32 0, align 4
@hf_ospf_v3_prefix_option = internal global i32 0, align 4
@hf_ospf_v3_lsa_interface_id = internal global i32 0, align 4
@hf_ospf_v3_lsa_neighbor_interface_id = internal global i32 0, align 4
@hf_ospf_v3_lsa_neighbor_router_id = internal global i32 0, align 4
@hf_ospf_v3_lsa_attached_router = internal global i32 0, align 4
@hf_ospf_v3_lsa_link_local_interface_address = internal global i32 0, align 4
@hf_ospf_v3_lsa_type = internal global i32 0, align 4
@hf_ospf_metric = internal global i32 0, align 4
@hf_ospf_prefix_length = internal global i32 0, align 4
@ett_ospf_elsa_pfx_tlv = internal global i32 0, align 4
@ett_ospf_v3_as_external_flags = internal global i32 0, align 4
@ett_ospf_v3_prefix_options = internal global i32 0, align 4
@.str.832 = private unnamed_addr constant [3 x i8] c"%s\00", align 1
@bf_v3_prefix_options = internal constant [5 x ptr] [ptr @hf_ospf_v3_prefix_option_p, ptr @hf_ospf_v3_prefix_option_mc, ptr @hf_ospf_v3_prefix_option_la, ptr @hf_ospf_v3_prefix_option_nu, ptr null], align 16
@bf_v3_as_external_flags = internal constant [4 x ptr] [ptr @hf_ospf_v3_as_external_flag_e, ptr @hf_ospf_v3_as_external_flag_f, ptr @hf_ospf_v3_as_external_flag_t, ptr null], align 16
@.str.916 = private unnamed_addr constant [18 x i8] c"Unknown E-LSA TLV\00", align 1

; Function Attrs: null_pointer_is_valid sspstrong uwtable
define internal void @dissect_ospf6_e_lsa_tlv(ptr noundef %0, ptr noundef %1, i32 noundef %2, ptr noundef %3, i32 noundef %4, i8 noundef zeroext %5) #0 {
  %7 = alloca ptr, align 8
  %8 = alloca ptr, align 8
  %9 = alloca i32, align 4
  %10 = alloca ptr, align 8
  %11 = alloca i32, align 4
  %12 = alloca i8, align 1
  %13 = alloca i32, align 4
  %14 = alloca i32, align 4
  %15 = alloca i8, align 1
  %16 = alloca i32, align 4
  %17 = alloca ptr, align 8
  store ptr %0, ptr %7, align 8
  store ptr %1, ptr %8, align 8
  store i32 %2, ptr %9, align 4
  store ptr %3, ptr %10, align 8
  store i32 %4, ptr %11, align 4
  store i8 %5, ptr %12, align 1
  call void @llvm.lifetime.start.p0(i64 4, ptr %13) #11
  call void @llvm.lifetime.start.p0(i64 4, ptr %14) #11
  call void @llvm.lifetime.start.p0(i64 1, ptr %15) #11
  call void @llvm.lifetime.start.p0(i64 4, ptr %16) #11
  %18 = load i32, ptr %9, align 4
  %19 = load i32, ptr %11, align 4
  %20 = add i32 %18, %19
  store i32 %20, ptr %16, align 4
  call void @llvm.lifetime.start.p0(i64 8, ptr %17) #11
  br label %21

21:                                               ; preds = %215, %6
  %22 = load i32, ptr %9, align 4
  %23 = load i32, ptr %16, align 4
  %24 = icmp slt i32 %22, %23
  br i1 %24, label %25, label %216

25:                                               ; preds = %21
  %26 = load ptr, ptr %7, align 8
  %27 = load i32, ptr %9, align 4
  %28 = call zeroext i16 @tvb_get_ntohs(ptr noundef %26, i32 noundef %27)
  %29 = zext i16 %28 to i32
  store i32 %29, ptr %13, align 4
  %30 = load ptr, ptr %7, align 8
  %31 = load i32, ptr %9, align 4
  %32 = add i32 %31, 2
  %33 = call zeroext i16 @tvb_get_ntohs(ptr noundef %30, i32 noundef %32)
  %34 = zext i16 %33 to i32
  store i32 %34, ptr %14, align 4
  %35 = load ptr, ptr %10, align 8
  %36 = load ptr, ptr %7, align 8
  %37 = load i32, ptr %9, align 4
  %38 = load i32, ptr %14, align 4
  %39 = add i32 %38, 4
  %40 = load i32, ptr @ett_ospf_elsa_pfx_tlv, align 4
  %41 = load i32, ptr %13, align 4
  %42 = call ptr @val_to_str_const(i32 noundef %41, ptr noundef @ospf6_extended_lsa_tlv_type_vals, ptr noundef @.str.916)
  %43 = call ptr (ptr, ptr, i32, i32, i32, ptr, ptr, ...) @proto_tree_add_subtree_format(ptr noundef %35, ptr noundef %36, i32 noundef %37, i32 noundef %39, i32 noundef %40, ptr noundef null, ptr noundef @.str.832, ptr noundef %42)
  store ptr %43, ptr %17, align 8
  %44 = load ptr, ptr %17, align 8
  %45 = load i32, ptr @hf_ospf_v3_e_lsa_tlv_type, align 4
  %46 = load ptr, ptr %7, align 8
  %47 = load i32, ptr %9, align 4
  %48 = call ptr @proto_tree_add_item(ptr noundef %44, i32 noundef %45, ptr noundef %46, i32 noundef %47, i32 noundef 2, i32 noundef 0)
  %49 = load ptr, ptr %17, align 8
  %50 = load i32, ptr @hf_ospf_v3_e_lsa_tlv_length, align 4
  %51 = load ptr, ptr %7, align 8
  %52 = load i32, ptr %9, align 4
  %53 = add i32 %52, 2
  %54 = call ptr @proto_tree_add_item(ptr noundef %49, i32 noundef %50, ptr noundef %51, i32 noundef %53, i32 noundef 2, i32 noundef 0)
  %55 = load i32, ptr %13, align 4
  switch i32 %55, label %208 [
    i32 6, label %56
    i32 1, label %94
    i32 7, label %137
    i32 2, label %150
    i32 5, label %163
  ]

56:                                               ; preds = %25
  %57 = load ptr, ptr %17, align 8
  %58 = load i32, ptr @hf_ospf_metric, align 4
  %59 = load ptr, ptr %7, align 8
  %60 = load i32, ptr %9, align 4
  %61 = add i32 %60, 4
  %62 = call ptr @proto_tree_add_item(ptr noundef %57, i32 noundef %58, ptr noundef %59, i32 noundef %61, i32 noundef 4, i32 noundef 0)
  %63 = load ptr, ptr %7, align 8
  %64 = load i32, ptr %9, align 4
  %65 = add i32 %64, 8
  %66 = call zeroext i8 @tvb_get_uint8(ptr noundef %63, i32 noundef %65)
  store i8 %66, ptr %15, align 1
  %67 = load ptr, ptr %17, align 8
  %68 = load i32, ptr @hf_ospf_prefix_length, align 4
  %69 = load ptr, ptr %7, align 8
  %70 = load i32, ptr %9, align 4
  %71 = add i32 %70, 8
  %72 = call ptr @proto_tree_add_item(ptr noundef %67, i32 noundef %68, ptr noundef %69, i32 noundef %71, i32 noundef 1, i32 noundef 0)
  %73 = load ptr, ptr %17, align 8
  %74 = load ptr, ptr %7, align 8
  %75 = load i32, ptr %9, align 4
  %76 = add i32 %75, 9
  %77 = load i32, ptr @hf_ospf_v3_prefix_option, align 4
  %78 = load i32, ptr @ett_ospf_v3_prefix_options, align 4
  %79 = call ptr @proto_tree_add_bitmask(ptr noundef %73, ptr noundef %74, i32 noundef %76, i32 noundef %77, i32 noundef %78, ptr noundef @bf_v3_prefix_options, i32 noundef 0)
  %80 = load ptr, ptr %7, align 8
  %81 = load ptr, ptr %8, align 8
  %82 = load i32, ptr %9, align 4
  %83 = add i32 %82, 12
  %84 = load i8, ptr %15, align 1
  %85 = zext i8 %84 to i32
  %86 = load ptr, ptr %17, align 8
  %87 = load i8, ptr %12, align 1
  call void @dissect_ospf_v3_address_prefix(ptr noundef %80, ptr noundef %81, i32 noundef %83, i32 noundef %85, ptr noundef %86, i8 noundef zeroext %87)
  %88 = load i32, ptr %14, align 4
  %89 = add i32 %88, 3
  %90 = and i32 %89, -4
  %91 = add i32 4, %90
  %92 = load i32, ptr %9, align 4
  %93 = add i32 %92, %91
  store i32 %93, ptr %9, align 4
  br label %215

94:                                               ; preds = %25
  %95 = load ptr, ptr %17, align 8
  %96 = load i32, ptr @hf_ospf_v3_lsa_type, align 4
  %97 = load ptr, ptr %7, align 8
  %98 = load i32, ptr %9, align 4
  %99 = add i32 %98, 4
  %100 = call ptr @proto_tree_add_item(ptr noundef %95, i32 noundef %96, ptr noundef %97, i32 noundef %99, i32 noundef 1, i32 noundef 0)
  %101 = load ptr, ptr %17, align 8
  %102 = load i32, ptr @hf_ospf_header_reserved, align 4
  %103 = load ptr, ptr %7, align 8
  %104 = load i32, ptr %9, align 4
  %105 = add i32 %104, 5
  %106 = call ptr @proto_tree_add_item(ptr noundef %101, i32 noundef %102, ptr noundef %103, i32 noundef %105, i32 noundef 1, i32 noundef 0)
  %107 = load ptr, ptr %17, align 8
  %108 = load i32, ptr @hf_ospf_metric, align 4
  %109 = load ptr, ptr %7, align 8
  %110 = load i32, ptr %9, align 4
  %111 = add i32 %110, 6
  %112 = call ptr @proto_tree_add_item(ptr noundef %107, i32 noundef %108, ptr noundef %109, i32 noundef %111, i32 noundef 2, i32 noundef 0)
  %113 = load ptr, ptr %17, align 8
  %114 = load i32, ptr @hf_ospf_v3_lsa_interface_id, align 4
  %115 = load ptr, ptr %7, align 8
  %116 = load i32, ptr %9, align 4
  %117 = add i32 %116, 8
  %118 = call ptr @proto_tree_add_item(ptr noundef %113, i32 noundef %114, ptr noundef %115, i32 noundef %117, i32 noundef 4, i32 noundef 0)
  %119 = load ptr, ptr %17, align 8
  %120 = load i32, ptr @hf_ospf_v3_lsa_neighbor_interface_id, align 4
  %121 = load ptr, ptr %7, align 8
  %122 = load i32, ptr %9, align 4
  %123 = add i32 %122, 12
  %124 = call ptr @proto_tree_add_item(ptr noundef %119, i32 noundef %120, ptr noundef %121, i32 noundef %123, i32 noundef 4, i32 noundef 0)
  %125 = load ptr, ptr %17, align 8
  %126 = load i32, ptr @hf_ospf_v3_lsa_neighbor_router_id, align 4
  %127 = load ptr, ptr %7, align 8
  %128 = load i32, ptr %9, align 4
  %129 = add i32 %128, 16
  %130 = call ptr @proto_tree_add_item(ptr noundef %125, i32 noundef %126, ptr noundef %127, i32 noundef %129, i32 noundef 4, i32 noundef 0)
  %131 = load i32, ptr %14, align 4
  %132 = add i32 %131, 3
  %133 = and i32 %132, -4
  %134 = add i32 4, %133
  %135 = load i32, ptr %9, align 4
  %136 = add i32 %135, %134
  store i32 %136, ptr %9, align 4
  br label %215

137:                                              ; preds = %25
  %138 = load ptr, ptr %17, align 8
  %139 = load i32, ptr @hf_ospf_v3_lsa_link_local_interface_address, align 4
  %140 = load ptr, ptr %7, align 8
  %141 = load i32, ptr %9, align 4
  %142 = add i32 %141, 4
  %143 = call ptr @proto_tree_add_item(ptr noundef %138, i32 noundef %139, ptr noundef %140, i32 noundef %142, i32 noundef 16, i32 noundef 0)
  %144 = load i32, ptr %14, align 4
  %145 = add i32 %144, 3
  %146 = and i32 %145, -4
  %147 = add i32 4, %146
  %148 = load i32, ptr %9, align 4
  %149 = add i32 %148, %147
  store i32 %149, ptr %9, align 4
  br label %215

150:                                              ; preds = %25
  %151 = load ptr, ptr %17, align 8
  %152 = load i32, ptr @hf_ospf_v3_lsa_attached_router, align 4
  %153 = load ptr, ptr %7, align 8
  %154 = load i32, ptr %9, align 4
  %155 = add i32 %154, 4
  %156 = call ptr @proto_tree_add_item(ptr noundef %151, i32 noundef %152, ptr noundef %153, i32 noundef %155, i32 noundef 4, i32 noundef 0)
  %157 = load i32, ptr %14, align 4
  %158 = add i32 %157, 3
  %159 = and i32 %158, -4
  %160 = add i32 4, %159
  %161 = load i32, ptr %9, align 4
  %162 = add i32 %161, %160
  store i32 %162, ptr %9, align 4
  br label %215

163:                                              ; preds = %25
  %164 = load ptr, ptr %17, align 8
  %165 = load ptr, ptr %7, align 8
  %166 = load i32, ptr %9, align 4
  %167 = add i32 %166, 4
  %168 = load i32, ptr @hf_ospf_v3_as_external_flag, align 4
  %169 = load i32, ptr @ett_ospf_v3_as_external_flags, align 4
  %170 = call ptr @proto_tree_add_bitmask(ptr noundef %164, ptr noundef %165, i32 noundef %167, i32 noundef %168, i32 noundef %169, ptr noundef @bf_v3_as_external_flags, i32 noundef 0)
  %171 = load ptr, ptr %17, align 8
  %172 = load i32, ptr @hf_ospf_metric, align 4
  %173 = load ptr, ptr %7, align 8
  %174 = load i32, ptr %9, align 4
  %175 = add i32 %174, 5
  %176 = call ptr @proto_tree_add_item(ptr noundef %171, i32 noundef %172, ptr noundef %173, i32 noundef %175, i32 noundef 3, i32 noundef 0)
  %177 = load ptr, ptr %7, align 8
  %178 = load i32, ptr %9, align 4
  %179 = add i32 %178, 8
  %180 = call zeroext i8 @tvb_get_uint8(ptr noundef %177, i32 noundef %179)
  store i8 %180, ptr %15, align 1
  %181 = load ptr, ptr %17, align 8
  %182 = load i32, ptr @hf_ospf_prefix_length, align 4
  %183 = load ptr, ptr %7, align 8
  %184 = load i32, ptr %9, align 4
  %185 = add i32 %184, 8
  %186 = call ptr @proto_tree_add_item(ptr noundef %181, i32 noundef %182, ptr noundef %183, i32 noundef %185, i32 noundef 1, i32 noundef 0)
  %187 = load ptr, ptr %17, align 8
  %188 = load ptr, ptr %7, align 8
  %189 = load i32, ptr %9, align 4
  %190 = add i32 %189, 9
  %191 = load i32, ptr @hf_ospf_v3_prefix_option, align 4
  %192 = load i32, ptr @ett_ospf_v3_prefix_options, align 4
  %193 = call ptr @proto_tree_add_bitmask(ptr noundef %187, ptr noundef %188, i32 noundef %190, i32 noundef %191, i32 noundef %192, ptr noundef @bf_v3_prefix_options, i32 noundef 0)
  %194 = load ptr, ptr %7, align 8
  %195 = load ptr, ptr %8, align 8
  %196 = load i32, ptr %9, align 4
  %197 = add i32 %196, 12
  %198 = load i8, ptr %15, align 1
  %199 = zext i8 %198 to i32
  %200 = load ptr, ptr %17, align 8
  %201 = load i8, ptr %12, align 1
  call void @dissect_ospf_v3_address_prefix(ptr noundef %194, ptr noundef %195, i32 noundef %197, i32 noundef %199, ptr noundef %200, i8 noundef zeroext %201)
  %202 = load i32, ptr %14, align 4
  %203 = add i32 %202, 3
  %204 = and i32 %203, -4
  %205 = add i32 4, %204
  %206 = load i32, ptr %9, align 4
  %207 = add i32 %206, %205
  store i32 %207, ptr %9, align 4
  br label %215

208:                                              ; preds = %25
  %209 = load i32, ptr %14, align 4
  %210 = add i32 %209, 3
  %211 = and i32 %210, -4
  %212 = add i32 4, %211
  %213 = load i32, ptr %9, align 4
  %214 = add i32 %213, %212
  store i32 %214, ptr %9, align 4
  br label %215

215:                                              ; preds = %208, %163, %150, %137, %94, %56
  br label %21, !llvm.loop !57

216:                                              ; preds = %21
  call void @llvm.lifetime.end.p0(i64 8, ptr %17) #11
  call void @llvm.lifetime.end.p0(i64 4, ptr %16) #11
  call void @llvm.lifetime.end.p0(i64 1, ptr %15) #11
  call void @llvm.lifetime.end.p0(i64 4, ptr %14) #11
  call void @llvm.lifetime.end.p0(i64 4, ptr %13) #11
  ret void
}