; Function Attrs: null_pointer_is_valid sspstrong uwtable
define internal fastcc void @dissect_ospf6_e_lsa_tlv(ptr noundef %0, ptr noundef %1, i32 noundef %2, ptr noundef %3, i32 noundef range(i32 0, 65536) %4, i8 noundef zeroext range(i8 4, 7) %5) unnamed_addr #0 {
  %7 = add i32 %4, %2
  %8 = icmp slt i32 %2, %7
  br i1 %8, label %.lr.ph, label %._crit_edge

.lr.ph:                                           ; preds = %6, %81
  %.092 = phi i32 [ %.1, %81 ], [ %2, %6 ]
  %9 = tail call zeroext i16 @tvb_get_ntohs(ptr noundef %0, i32 noundef %.092)
  %10 = zext i16 %9 to i32
  %11 = add i32 %.092, 2
  %12 = tail call zeroext i16 @tvb_get_ntohs(ptr noundef %0, i32 noundef %11)
  %13 = zext i16 %12 to i32
  %14 = add nuw nsw i32 %13, 4
  %15 = load i32, ptr @ett_ospf_elsa_pfx_tlv, align 4
  %16 = tail call ptr @val_to_str_const(i32 noundef %10, ptr noundef nonnull @ospf6_extended_lsa_tlv_type_vals, ptr noundef nonnull @.str.916)
  %17 = tail call ptr (ptr, ptr, i32, i32, i32, ptr, ptr, ...) @proto_tree_add_subtree_format(ptr noundef %3, ptr noundef %0, i32 noundef %.092, i32 noundef %14, i32 noundef %15, ptr noundef null, ptr noundef nonnull @.str.832, ptr noundef %16)
  %18 = load i32, ptr @hf_ospf_v3_e_lsa_tlv_type, align 4
  %19 = tail call ptr @proto_tree_add_item(ptr noundef %17, i32 noundef %18, ptr noundef %0, i32 noundef %.092, i32 noundef 2, i32 noundef 0)
  %20 = load i32, ptr @hf_ospf_v3_e_lsa_tlv_length, align 4
  %21 = tail call ptr @proto_tree_add_item(ptr noundef %17, i32 noundef %20, ptr noundef %0, i32 noundef %11, i32 noundef 2, i32 noundef 0)
  switch i16 %9, label %.lr.ph._crit_edge [
    i16 6, label %22
    i16 1, label %36
    i16 7, label %55
    i16 2, label %59
    i16 5, label %63
  ]

.lr.ph._crit_edge:                                ; preds = %.lr.ph
  %.pre = add i32 %.092, 4
  br label %81

22:                                               ; preds = %.lr.ph
  %23 = load i32, ptr @hf_ospf_metric, align 4
  %24 = add i32 %.092, 4
  %25 = tail call ptr @proto_tree_add_item(ptr noundef %17, i32 noundef %23, ptr noundef %0, i32 noundef %24, i32 noundef 4, i32 noundef 0)
  %26 = add i32 %.092, 8
  %27 = tail call zeroext i8 @tvb_get_uint8(ptr noundef %0, i32 noundef %26)
  %28 = load i32, ptr @hf_ospf_prefix_length, align 4
  %29 = tail call ptr @proto_tree_add_item(ptr noundef %17, i32 noundef %28, ptr noundef %0, i32 noundef %26, i32 noundef 1, i32 noundef 0)
  %30 = add i32 %.092, 9
  %31 = load i32, ptr @hf_ospf_v3_prefix_option, align 4
  %32 = load i32, ptr @ett_ospf_v3_prefix_options, align 4
  %33 = tail call ptr @proto_tree_add_bitmask(ptr noundef %17, ptr noundef %0, i32 noundef %30, i32 noundef %31, i32 noundef %32, ptr noundef nonnull @bf_v3_prefix_options, i32 noundef 0)
  %34 = add i32 %.092, 12
  %35 = zext i8 %27 to i32
  tail call fastcc void @dissect_ospf_v3_address_prefix(ptr noundef %0, ptr noundef %1, i32 noundef %34, i32 noundef %35, ptr noundef %17, i8 noundef zeroext %5)
  br label %81

36:                                               ; preds = %.lr.ph
  %37 = load i32, ptr @hf_ospf_v3_lsa_type, align 4
  %38 = add i32 %.092, 4
  %39 = tail call ptr @proto_tree_add_item(ptr noundef %17, i32 noundef %37, ptr noundef %0, i32 noundef %38, i32 noundef 1, i32 noundef 0)
  %40 = load i32, ptr @hf_ospf_header_reserved, align 4
  %41 = add i32 %.092, 5
  %42 = tail call ptr @proto_tree_add_item(ptr noundef %17, i32 noundef %40, ptr noundef %0, i32 noundef %41, i32 noundef 1, i32 noundef 0)
  %43 = load i32, ptr @hf_ospf_metric, align 4
  %44 = add i32 %.092, 6
  %45 = tail call ptr @proto_tree_add_item(ptr noundef %17, i32 noundef %43, ptr noundef %0, i32 noundef %44, i32 noundef 2, i32 noundef 0)
  %46 = load i32, ptr @hf_ospf_v3_lsa_interface_id, align 4
  %47 = add i32 %.092, 8
  %48 = tail call ptr @proto_tree_add_item(ptr noundef %17, i32 noundef %46, ptr noundef %0, i32 noundef %47, i32 noundef 4, i32 noundef 0)
  %49 = load i32, ptr @hf_ospf_v3_lsa_neighbor_interface_id, align 4
  %50 = add i32 %.092, 12
  %51 = tail call ptr @proto_tree_add_item(ptr noundef %17, i32 noundef %49, ptr noundef %0, i32 noundef %50, i32 noundef 4, i32 noundef 0)
  %52 = load i32, ptr @hf_ospf_v3_lsa_neighbor_router_id, align 4
  %53 = add i32 %.092, 16
  %54 = tail call ptr @proto_tree_add_item(ptr noundef %17, i32 noundef %52, ptr noundef %0, i32 noundef %53, i32 noundef 4, i32 noundef 0)
  br label %81

55:                                               ; preds = %.lr.ph
  %56 = load i32, ptr @hf_ospf_v3_lsa_link_local_interface_address, align 4
  %57 = add i32 %.092, 4
  %58 = tail call ptr @proto_tree_add_item(ptr noundef %17, i32 noundef %56, ptr noundef %0, i32 noundef %57, i32 noundef 16, i32 noundef 0)
  br label %81

59:                                               ; preds = %.lr.ph
  %60 = load i32, ptr @hf_ospf_v3_lsa_attached_router, align 4
  %61 = add i32 %.092, 4
  %62 = tail call ptr @proto_tree_add_item(ptr noundef %17, i32 noundef %60, ptr noundef %0, i32 noundef %61, i32 noundef 4, i32 noundef 0)
  br label %81

63:                                               ; preds = %.lr.ph
  %64 = add i32 %.092, 4
  %65 = load i32, ptr @hf_ospf_v3_as_external_flag, align 4
  %66 = load i32, ptr @ett_ospf_v3_as_external_flags, align 4
  %67 = tail call ptr @proto_tree_add_bitmask(ptr noundef %17, ptr noundef %0, i32 noundef %64, i32 noundef %65, i32 noundef %66, ptr noundef nonnull @bf_v3_as_external_flags, i32 noundef 0)
  %68 = load i32, ptr @hf_ospf_metric, align 4
  %69 = add i32 %.092, 5
  %70 = tail call ptr @proto_tree_add_item(ptr noundef %17, i32 noundef %68, ptr noundef %0, i32 noundef %69, i32 noundef 3, i32 noundef 0)
  %71 = add i32 %.092, 8
  %72 = tail call zeroext i8 @tvb_get_uint8(ptr noundef %0, i32 noundef %71)
  %73 = load i32, ptr @hf_ospf_prefix_length, align 4
  %74 = tail call ptr @proto_tree_add_item(ptr noundef %17, i32 noundef %73, ptr noundef %0, i32 noundef %71, i32 noundef 1, i32 noundef 0)
  %75 = add i32 %.092, 9
  %76 = load i32, ptr @hf_ospf_v3_prefix_option, align 4
  %77 = load i32, ptr @ett_ospf_v3_prefix_options, align 4
  %78 = tail call ptr @proto_tree_add_bitmask(ptr noundef %17, ptr noundef %0, i32 noundef %75, i32 noundef %76, i32 noundef %77, ptr noundef nonnull @bf_v3_prefix_options, i32 noundef 0)
  %79 = add i32 %.092, 12
  %80 = zext i8 %72 to i32
  tail call fastcc void @dissect_ospf_v3_address_prefix(ptr noundef %0, ptr noundef %1, i32 noundef %79, i32 noundef %80, ptr noundef %17, i8 noundef zeroext %5)
  br label %81

81:                                               ; preds = %.lr.ph._crit_edge, %63, %59, %55, %36, %22
  %.pn.pre-phi = phi i32 [ %.pre, %.lr.ph._crit_edge ], [ %64, %63 ], [ %61, %59 ], [ %57, %55 ], [ %38, %36 ], [ %24, %22 ]
  %.pn.in.in = add nuw nsw i32 %13, 3
  %.pn.in = and i32 %.pn.in.in, 131068
  %.1 = add i32 %.pn.pre-phi, %.pn.in
  %82 = icmp slt i32 %.1, %7
  br i1 %82, label %.lr.ph, label %._crit_edge, !llvm.loop !60

._crit_edge:                                      ; preds = %81, %6
  ret void
}